; Function Attrs: mustprogress nofree norecurse nosync nounwind willreturn memory(read, argmem: readwrite, inaccessiblemem: none) uwtable
define hidden noundef zeroext i1 @_ZN7datalog14mk_array_blast12is_store_defEP4exprRS2_S3_(ptr nocapture noundef nonnull readonly align 8 dereferenceable(540) %this, ptr nocapture noundef readonly %e, ptr nocapture noundef nonnull align 8 dereferenceable(8) %x, ptr nocapture noundef nonnull writeonly align 8 dereferenceable(8) %y) local_unnamed_addr #6 align 2 {
entry:
  %m_kind.i.i.i.i = getelementptr inbounds i8, ptr %e, i64 4
  %bf.load.i.i.i.i = load i32, ptr %m_kind.i.i.i.i, align 4
  %bf.clear.i.i.i.i = and i32 %bf.load.i.i.i.i, 65535
  %cmp.i.i.i = icmp eq i32 %bf.clear.i.i.i.i, 0
  br i1 %cmp.i.i.i, label %land.rhs.i.i.i, label %if.end9

land.rhs.i.i.i:                                   ; preds = %entry
  %m_decl.i.i.i.i = getelementptr inbounds i8, ptr %e, i64 16
  %0 = load ptr, ptr %m_decl.i.i.i.i, align 8
  %m_info.i.i.i.i.i = getelementptr inbounds i8, ptr %0, i64 24
  %1 = load ptr, ptr %m_info.i.i.i.i.i, align 8
  %tobool.not.i.i.i.i.i = icmp eq ptr %1, null
  br i1 %tobool.not.i.i.i.i.i, label %if.end9, label %_ZNK11ast_manager5is_eqEPK4expr.exit.i

_ZNK11ast_manager5is_eqEPK4expr.exit.i:           ; preds = %land.rhs.i.i.i
  %2 = load i32, ptr %1, align 8
  %cmp.i.i.i.i.i.i = icmp eq i32 %2, 0
  %m_kind.i.i.i.i.i.i = getelementptr inbounds i8, ptr %1, i64 4
  %3 = load i32, ptr %m_kind.i.i.i.i.i.i, align 4
  %cmp2.i.i.i.i.i.i = icmp eq i32 %3, 2
  %4 = select i1 %cmp.i.i.i.i.i.i, i1 %cmp2.i.i.i.i.i.i, i1 false
  br i1 %4, label %land.lhs.true.i, label %if.end9

land.lhs.true.i:                                  ; preds = %_ZNK11ast_manager5is_eqEPK4expr.exit.i
  %m_num_args.i.i = getelementptr inbounds i8, ptr %e, i64 24
  %5 = load i32, ptr %m_num_args.i.i, align 8
  %cmp.i = icmp eq i32 %5, 2
  br i1 %cmp.i, label %if.then, label %if.end9

if.then:                                          ; preds = %land.lhs.true.i
  %m_args.i.i = getelementptr inbounds i8, ptr %e, i64 32
  %6 = load ptr, ptr %m_args.i.i, align 8
  store ptr %6, ptr %x, align 8
  %arrayidx.i.i = getelementptr inbounds i8, ptr %e, i64 40
  %7 = load ptr, ptr %arrayidx.i.i, align 8
  store ptr %7, ptr %y, align 8
  %a = getelementptr inbounds i8, ptr %this, i64 40
  %8 = load i32, ptr %a, align 8
  %m_kind.i.i.i = getelementptr inbounds i8, ptr %7, i64 4
  %bf.load.i.i.i = load i32, ptr %m_kind.i.i.i, align 4
  %bf.clear.i.i.i = and i32 %bf.load.i.i.i, 65535
  %cmp.i.i = icmp eq i32 %bf.clear.i.i.i, 0
  br i1 %cmp.i.i, label %land.rhs.i.i, label %if.then3

land.rhs.i.i:                                     ; preds = %if.then
  %m_decl.i.i.i = getelementptr inbounds i8, ptr %7, i64 16
  %9 = load ptr, ptr %m_decl.i.i.i, align 8
  %m_info.i.i.i.i = getelementptr inbounds i8, ptr %9, i64 24
  %10 = load ptr, ptr %m_info.i.i.i.i, align 8
  %tobool.not.i.i.i.i = icmp eq ptr %10, null
  br i1 %tobool.not.i.i.i.i, label %if.then3, label %_ZNK17array_recognizers8is_storeEP4expr.exit

_ZNK17array_recognizers8is_storeEP4expr.exit:     ; preds = %land.rhs.i.i
  %11 = load i32, ptr %10, align 8
  %cmp.i.i.i.i.i = icmp eq i32 %11, %8
  %m_kind.i.i.i.i.i = getelementptr inbounds i8, ptr %10, i64 4
  %12 = load i32, ptr %m_kind.i.i.i.i.i, align 4
  %cmp2.i.i.i.i.i = icmp eq i32 %12, 0
  %13 = select i1 %cmp.i.i.i.i.i, i1 %cmp2.i.i.i.i.i, i1 false
  br i1 %13, label %if.end, label %if.then3

if.then3:                                         ; preds = %land.rhs.i.i, %if.then, %_ZNK17array_recognizers8is_storeEP4expr.exit
  %14 = load ptr, ptr %x, align 8
  store ptr %7, ptr %x, align 8
  store ptr %14, ptr %y, align 8
  br label %if.end

if.end:                                           ; preds = %if.then3, %_ZNK17array_recognizers8is_storeEP4expr.exit
  %15 = phi ptr [ %14, %if.then3 ], [ %7, %_ZNK17array_recognizers8is_storeEP4expr.exit ]
  %16 = load ptr, ptr %x, align 8
  %m_kind.i.i = getelementptr inbounds i8, ptr %16, i64 4
  %bf.load.i.i = load i32, ptr %m_kind.i.i, align 4
  %bf.clear.i.i = and i32 %bf.load.i.i, 65535
  %cmp.i6 = icmp eq i32 %bf.clear.i.i, 1
  br i1 %cmp.i6, label %land.lhs.true, label %if.end9

land.lhs.true:                                    ; preds = %if.end
  %17 = load i32, ptr %a, align 8
  %m_kind.i.i.i7 = getelementptr inbounds i8, ptr %15, i64 4
  %bf.load.i.i.i8 = load i32, ptr %m_kind.i.i.i7, align 4
  %bf.clear.i.i.i9 = and i32 %bf.load.i.i.i8, 65535
  %cmp.i.i10 = icmp eq i32 %bf.clear.i.i.i9, 0
  br i1 %cmp.i.i10, label %land.rhs.i.i11, label %if.end9

land.rhs.i.i11:                                   ; preds = %land.lhs.true
  %m_decl.i.i.i12 = getelementptr inbounds i8, ptr %15, i64 16
  %18 = load ptr, ptr %m_decl.i.i.i12, align 8
  %m_info.i.i.i.i13 = getelementptr inbounds i8, ptr %18, i64 24
  %19 = load ptr, ptr %m_info.i.i.i.i13, align 8
  %tobool.not.i.i.i.i14 = icmp eq ptr %19, null
  br i1 %tobool.not.i.i.i.i14, label %if.end9, label %_ZNK17array_recognizers8is_storeEP4expr.exit19

_ZNK17array_recognizers8is_storeEP4expr.exit19:   ; preds = %land.rhs.i.i11
  %20 = load i32, ptr %19, align 8
  %cmp.i.i.i.i.i16 = icmp eq i32 %20, %17
  %m_kind.i.i.i.i.i17 = getelementptr inbounds i8, ptr %19, i64 4
  %21 = load i32, ptr %m_kind.i.i.i.i.i17, align 4
  %cmp2.i.i.i.i.i18 = icmp eq i32 %21, 0
  %22 = select i1 %cmp.i.i.i.i.i16, i1 %cmp2.i.i.i.i.i18, i1 false
  br i1 %22, label %return, label %if.end9

if.end9:                                          ; preds = %land.rhs.i.i11, %land.lhs.true, %land.rhs.i.i.i, %entry, %_ZNK11ast_manager5is_eqEPK4expr.exit.i, %land.lhs.true.i, %if.end, %_ZNK17array_recognizers8is_storeEP4expr.exit19
  br label %return

return:                                           ; preds = %_ZNK17array_recognizers8is_storeEP4expr.exit19, %if.end9
  %retval.0 = phi i1 [ false, %if.end9 ], [ true, %_ZNK17array_recognizers8is_storeEP4expr.exit19 ]
  ret i1 %retval.0
}